; Function Attrs: mustprogress uwtable
define internal noundef nonnull ptr @_ZN7testing8internal15TestFactoryImplIN12_GLOBAL__N_123gtest_suite_WaiterTest_13WaitTimeWokenIN4absl24synchronization_internal9SemWaiterEEEE10CreateTestEv(ptr nocapture nonnull readnone align 8 %this) unnamed_addr #3 align 2 personality ptr @__gxx_personality_v0 {
entry:
  %call = tail call noalias noundef nonnull dereferenceable(16) ptr @_Znwm(i64 noundef 16) #30
  invoke void @_ZN7testing4TestC2Ev(ptr noundef nonnull align 8 dereferenceable(16) %call)
          to label %.noexc unwind label %lpad

.noexc:                                           ; preds = %entry
  store ptr getelementptr inbounds ({ [8 x ptr] }, ptr @_ZTVN12_GLOBAL__N_110WaiterTestIN4absl24synchronization_internal9SemWaiterEEE, i64 0, i32 0, i64 2), ptr %call, align 8
  %call.i1.i.i = invoke noundef ptr @_ZN4absl13base_internal30CurrentThreadIdentityIfPresentEv()
          to label %call.i.noexc.i.i unwind label %lpad.i.i

call.i.noexc.i.i:                                 ; preds = %.noexc
  %cmp.i.i.i = icmp eq ptr %call.i1.i.i, null
  br i1 %cmp.i.i.i, label %if.then.i.i.i, label %invoke.cont

if.then.i.i.i:                                    ; preds = %call.i.noexc.i.i
  %call1.i2.i.i = invoke noundef ptr @_ZN4absl24synchronization_internal20CreateThreadIdentityEv()
          to label %invoke.cont unwind label %lpad.i.i

lpad.i.i:                                         ; preds = %if.then.i.i.i, %.noexc
  %0 = landingpad { ptr, i32 }
          cleanup
  tail call void @_ZN7testing4TestD2Ev(ptr noundef nonnull align 8 dereferenceable(16) %call) #25
  br label %lpad.body

invoke.cont:                                      ; preds = %if.then.i.i.i, %call.i.noexc.i.i
  store ptr getelementptr inbounds ({ [8 x ptr] }, ptr @_ZTVN12_GLOBAL__N_123gtest_suite_WaiterTest_13WaitTimeWokenIN4absl24synchronization_internal9SemWaiterEEE, i64 0, i32 0, i64 2), ptr %call, align 8
  ret ptr %call

lpad:                                             ; preds = %entry
  %1 = landingpad { ptr, i32 }
          cleanup
  br label %lpad.body

lpad.body:                                        ; preds = %lpad.i.i, %lpad
  %eh.lpad-body = phi { ptr, i32 } [ %1, %lpad ], [ %0, %lpad.i.i ]
  tail call void @_ZdlPv(ptr noundef nonnull %call) #29
  resume { ptr, i32 } %eh.lpad-body
}